target datalayout = "e-m:e-p270:32:32-p271:32:32-p272:64:64-i64:64-i128:128-f80:128-n8:16:32:64-S128"
target triple = "x86_64-pc-linux-gnu"

%struct.slurm_conf_t = type { i64, ptr, i16, ptr, ptr, ptr, ptr, ptr, i16, ptr, ptr, ptr, ptr, ptr, ptr, ptr, i16, ptr, ptr, ptr, ptr, i16, ptr, ptr, ptr, i64, ptr, ptr, ptr, ptr, i16, ptr, ptr, i16, i32, ptr, i32, ptr, i32, i32, ptr, ptr, i64, i64, ptr, i16, i16, ptr, i32, i32, ptr, i32, ptr, i32, i16, i16, i16, ptr, i16, i16, ptr, ptr, i32, i16, i16, ptr, i32, i16, ptr, ptr, ptr, ptr, i16, ptr, ptr, ptr, ptr, i32, ptr, ptr, ptr, ptr, i16, i16, ptr, i32, i32, i32, i16, i16, ptr, ptr, i16, ptr, ptr, i32, i32, i32, i32, i32, i64, i32, i32, i16, ptr, ptr, i32, ptr, ptr, ptr, i16, i32, ptr, ptr, i16, ptr, ptr, i32, i16, ptr, ptr, ptr, ptr, i32, i32, i16, i16, i32, ptr, i16, ptr, i32, i32, i32, i32, i32, i32, ptr, i16, ptr, ptr, i32, i16, ptr, i32, i16, i16, ptr, ptr, ptr, i16, ptr, ptr, ptr, ptr, i16, i16, ptr, i16, ptr, i16, ptr, i16, ptr, i16, ptr, ptr, ptr, ptr, i16, ptr, ptr, ptr, i32, ptr, i32, ptr, ptr, i16, ptr, ptr, i32, i16, ptr, ptr, i16, i16, ptr, i16, ptr, ptr, ptr, i32, ptr, i16, i16, ptr, ptr, ptr, ptr, ptr, ptr, ptr, ptr, i16, i32, i16, ptr, ptr, ptr, ptr, i32, ptr, ptr, ptr, i16, ptr, ptr, ptr, i16, ptr, i16, ptr, i16, i16, ptr }
%struct.job_record = type { i32, ptr, ptr, ptr, ptr, i16, i32, i32, i32, ptr, i32, ptr, ptr, i16, ptr, double, i64, ptr, ptr, ptr, ptr, ptr, ptr, i32, ptr, i32, i64, i64, i32, i32, ptr, i16, i64, i64, i8, i32, ptr, ptr, ptr, ptr, ptr, ptr, ptr, ptr, i32, ptr, ptr, i32, ptr, i32, ptr, i32, ptr, i32, ptr, ptr, ptr, ptr, ptr, ptr, i32, i16, i64, ptr, ptr, ptr, ptr, %struct.acct_policy_limit_set_t, i16, ptr, ptr, ptr, ptr, ptr, i32, ptr, ptr, ptr, ptr, ptr, i32, i32, ptr, ptr, ptr, i16, ptr, ptr, i8, ptr, ptr, i64, i64, i8, i32, i32, i8, i32, ptr, i32, i64, i32, ptr, ptr, ptr, i8, i16, i64, i32, ptr, ptr, ptr, ptr, ptr, i16, i32, ptr, ptr, ptr, ptr, i32, ptr, i32, i16, i64, ptr, i32, i32, ptr, i64, ptr, ptr, i64, i32, i32, i64, i32, i32, ptr, ptr, ptr, ptr, ptr, ptr, ptr, ptr, ptr, ptr, ptr, ptr, i32, ptr, i16, i16, i16, i16, ptr, i32, i32, i8, i64 }
%struct.acct_policy_limit_set_t = type { i16, i16, ptr }
%struct.suspend_msg = type { i16, i32, ptr }

@slurm_conf = external global %struct.slurm_conf_t, align 8
@.str.54 = private unnamed_addr constant [21 x i8] c"gang: suspending %pJ\00", align 1
@.str.55 = private unnamed_addr constant [25 x i8] c"gang: suspending %pJ: %s\00", align 1

; Function Attrs: nounwind uwtable
define internal i32 @_suspend_job(ptr noundef %0) #0 {
  %2 = alloca ptr, align 8
  %3 = alloca i32, align 4
  %4 = alloca %struct.suspend_msg, align 8
  store ptr %0, ptr %2, align 8
  call void @llvm.lifetime.start.p0(i64 4, ptr %3) #8
  call void @llvm.lifetime.start.p0(i64 16, ptr %4) #8
  call void @llvm.memset.p0.i64(ptr align 8 %4, i8 0, i64 16, i1 false)
  %5 = load ptr, ptr %2, align 8
  %6 = getelementptr inbounds nuw %struct.job_record, ptr %5, i32 0, i32 53
  %7 = load i32, ptr %6, align 8
  %8 = getelementptr inbounds nuw %struct.suspend_msg, ptr %4, i32 0, i32 1
  store i32 %7, ptr %8, align 4
  %9 = getelementptr inbounds nuw %struct.suspend_msg, ptr %4, i32 0, i32 2
  store ptr null, ptr %9, align 8
  %10 = getelementptr inbounds nuw %struct.suspend_msg, ptr %4, i32 0, i32 0
  store i16 0, ptr %10, align 8
  %11 = call i32 @job_suspend(ptr noundef null, ptr noundef %4, i32 noundef 0, i1 noundef zeroext false, i16 noundef zeroext -2)
  store i32 %11, ptr %3, align 4
  %12 = load i32, ptr %3, align 4
  %13 = icmp eq i32 %12, 0
  br i1 %13, label %14, label %43

14:                                               ; preds = %1
  %15 = load i64, ptr getelementptr inbounds nuw (%struct.slurm_conf_t, ptr @slurm_conf, i32 0, i32 42), align 8
  %16 = and i64 %15, 8192
  %17 = icmp ne i64 %16, 0
  br i1 %17, label %18, label %30

18:                                               ; preds = %14
  br label %19

19:                                               ; preds = %18
  br label %20

20:                                               ; preds = %19
  %21 = call i32 @get_log_level()
  %22 = icmp sge i32 %21, 3
  br i1 %22, label %23, label %25

23:                                               ; preds = %20
  %24 = load ptr, ptr %2, align 8
  call void (i32, ptr, ...) @log_var(i32 noundef 3, ptr noundef @.str.54, ptr noundef %24)
  br label %25

25:                                               ; preds = %23, %20
  br label %26

26:                                               ; preds = %25
  br label %27

27:                                               ; preds = %26
  br label %28

28:                                               ; preds = %27
  br label %29

29:                                               ; preds = %28
  br label %42

30:                                               ; preds = %14
  br label %31

31:                                               ; preds = %30
  br label %32

32:                                               ; preds = %31
  %33 = call i32 @get_log_level()
  %34 = icmp sge i32 %33, 5
  br i1 %34, label %35, label %37

35:                                               ; preds = %32
  %36 = load ptr, ptr %2, align 8
  call void (i32, ptr, ...) @log_var(i32 noundef 5, ptr noundef @.str.54, ptr noundef %36)
  br label %37

37:                                               ; preds = %35, %32
  br label %38

38:                                               ; preds = %37
  br label %39

39:                                               ; preds = %38
  br label %40

40:                                               ; preds = %39
  br label %41

41:                                               ; preds = %40
  br label %42

42:                                               ; preds = %41, %29
  br label %61

43:                                               ; preds = %1
  %44 = load i32, ptr %3, align 4
  %45 = icmp ne i32 %44, 2037
  br i1 %45, label %46, label %60

46:                                               ; preds = %43
  br label %47

47:                                               ; preds = %46
  br label %48

48:                                               ; preds = %47
  %49 = call i32 @get_log_level()
  %50 = icmp sge i32 %49, 3
  br i1 %50, label %51, label %55

51:                                               ; preds = %48
  %52 = load ptr, ptr %2, align 8
  %53 = load i32, ptr %3, align 4
  %54 = call ptr @slurm_strerror(i32 noundef %53)
  call void (i32, ptr, ...) @log_var(i32 noundef 3, ptr noundef @.str.55, ptr noundef %52, ptr noundef %54)
  br label %55

55:                                               ; preds = %51, %48
  br label %56

56:                                               ; preds = %55
  br label %57

57:                                               ; preds = %56
  br label %58

58:                                               ; preds = %57
  br label %59

59:                                               ; preds = %58
  br label %60

60:                                               ; preds = %59, %43
  br label %61

61:                                               ; preds = %60, %42
  %62 = load i32, ptr %3, align 4
  call void @llvm.lifetime.end.p0(i64 16, ptr %4) #8
  call void @llvm.lifetime.end.p0(i64 4, ptr %3) #8
  ret i32 %62
}