; Function Attrs: nounwind uwtable
define internal fastcc noundef i32 @_suspend_job(ptr noundef %0) unnamed_addr #0 {
  %2 = alloca %struct.suspend_msg, align 8
  call void @llvm.lifetime.start.p0(i64 16, ptr nonnull %2) #8
  store i64 0, ptr %2, align 8
  %3 = getelementptr inbounds nuw i8, ptr %0, i64 392
  %4 = load i32, ptr %3, align 8
  %5 = getelementptr inbounds nuw i8, ptr %2, i64 4
  store i32 %4, ptr %5, align 4
  %6 = getelementptr inbounds nuw i8, ptr %2, i64 8
  store ptr null, ptr %6, align 8
  %7 = call i32 @job_suspend(ptr noundef null, ptr noundef nonnull %2, i32 noundef 0, i1 noundef zeroext false, i16 noundef zeroext -2) #8
  switch i32 %7, label %18 [
    i32 0, label %8
    i32 2037, label %23
  ]

8:                                                ; preds = %1
  %9 = load i64, ptr getelementptr inbounds nuw (i8, ptr @slurm_conf, i64 320), align 8
  %10 = and i64 %9, 8192
  %.not7 = icmp eq i64 %10, 0
  %11 = call i32 @get_log_level() #8
  br i1 %.not7, label %15, label %12

12:                                               ; preds = %8
  %13 = icmp sgt i32 %11, 2
  br i1 %13, label %14, label %23

14:                                               ; preds = %12
  call void (i32, ptr, ...) @log_var(i32 noundef 3, ptr noundef nonnull @.str.54, ptr noundef nonnull %0) #8
  br label %23

15:                                               ; preds = %8
  %16 = icmp sgt i32 %11, 4
  br i1 %16, label %17, label %23

17:                                               ; preds = %15
  call void (i32, ptr, ...) @log_var(i32 noundef 5, ptr noundef nonnull @.str.54, ptr noundef nonnull %0) #8
  br label %23

18:                                               ; preds = %1
  %19 = call i32 @get_log_level() #8
  %20 = icmp sgt i32 %19, 2
  br i1 %20, label %21, label %23

21:                                               ; preds = %18
  %22 = call ptr @slurm_strerror(i32 noundef %7) #8
  call void (i32, ptr, ...) @log_var(i32 noundef 3, ptr noundef nonnull @.str.55, ptr noundef nonnull %0, ptr noundef %22) #8
  br label %23

23:                                               ; preds = %1, %21, %18, %14, %12, %17, %15
  call void @llvm.lifetime.end.p0(i64 16, ptr nonnull %2) #8
  ret i32 %7
}